target datalayout = "e-m:e-p270:32:32-p271:32:32-p272:64:64-i64:64-i128:128-f80:128-n8:16:32:64-S128"
target triple = "x86_64-pc-linux-gnu"

%"struct.std::_Rb_tree_header" = type { %"struct.std::_Rb_tree_node_base", i64 }
%"struct.std::_Rb_tree_node_base" = type { i32, ptr, ptr, ptr }
%"class.std::_Rb_tree.568" = type { %"struct.std::_Rb_tree<ue2::NGHolder *, std::pair<ue2::NGHolder *const, ue2::(anonymous namespace)::infix_info>, std::_Select1st<std::pair<ue2::NGHolder *const, ue2::(anonymous namespace)::infix_info>>, std::less<ue2::NGHolder *>>::_Rb_tree_impl" }
%"struct.std::_Rb_tree<ue2::NGHolder *, std::pair<ue2::NGHolder *const, ue2::(anonymous namespace)::infix_info>, std::_Select1st<std::pair<ue2::NGHolder *const, ue2::(anonymous namespace)::infix_info>>, std::less<ue2::NGHolder *>>::_Rb_tree_impl" = type { [8 x i8], %"struct.std::_Rb_tree_header" }
%"struct.std::pair.574" = type { ptr, %"struct.ue2::(anonymous namespace)::infix_info" }
%"struct.ue2::(anonymous namespace)::infix_info" = type { %"class.std::set.576", %"class.std::set.576" }
%"class.std::set.576" = type { %"class.std::_Rb_tree.577" }
%"class.std::_Rb_tree.577" = type { %"struct.std::_Rb_tree<ue2::graph_detail::vertex_descriptor<ue2::ue2_graph<ue2::RoseGraph, ue2::RoseVertexProps, ue2::RoseEdgeProps>>, ue2::graph_detail::vertex_descriptor<ue2::ue2_graph<ue2::RoseGraph, ue2::RoseVertexProps, ue2::RoseEdgeProps>>, std::_Identity<ue2::graph_detail::vertex_descriptor<ue2::ue2_graph<ue2::RoseGraph, ue2::RoseVertexProps, ue2::RoseEdgeProps>>>, std::less<ue2::graph_detail::vertex_descriptor<ue2::ue2_graph<ue2::RoseGraph, ue2::RoseVertexProps, ue2::RoseEdgeProps>>>>::_Rb_tree_impl" }
%"struct.std::_Rb_tree<ue2::graph_detail::vertex_descriptor<ue2::ue2_graph<ue2::RoseGraph, ue2::RoseVertexProps, ue2::RoseEdgeProps>>, ue2::graph_detail::vertex_descriptor<ue2::ue2_graph<ue2::RoseGraph, ue2::RoseVertexProps, ue2::RoseEdgeProps>>, std::_Identity<ue2::graph_detail::vertex_descriptor<ue2::ue2_graph<ue2::RoseGraph, ue2::RoseVertexProps, ue2::RoseEdgeProps>>>, std::less<ue2::graph_detail::vertex_descriptor<ue2::ue2_graph<ue2::RoseGraph, ue2::RoseVertexProps, ue2::RoseEdgeProps>>>>::_Rb_tree_impl" = type { [8 x i8], %"struct.std::_Rb_tree_header" }
%"struct.std::_Rb_tree_node.591" = type { %"struct.std::_Rb_tree_node_base", %"struct.__gnu_cxx::__aligned_membuf.592" }
%"struct.__gnu_cxx::__aligned_membuf.592" = type { [104 x i8] }

; Function Attrs: mustprogress nounwind uwtable
define linkonce_odr hidden noundef ptr @_ZNKSt8_Rb_treeIN3ue212graph_detail17vertex_descriptorINS0_9ue2_graphINS0_9RoseGraphENS0_15RoseVertexPropsENS0_13RoseEdgePropsEEEEES8_St9_IdentityIS8_ESt4lessIS8_ESaIS8_EE9_M_mbeginEv(ptr noundef nonnull align 8 dereferenceable(48) %0) #1 comdat align 2 {
  %2 = alloca ptr, align 8
  store ptr %0, ptr %2, align 8
  %3 = load ptr, ptr %2, align 8
  %4 = getelementptr inbounds nuw %"class.std::_Rb_tree.577", ptr %3, i32 0, i32 0
  %5 = getelementptr inbounds i8, ptr %4, i64 8
  %6 = getelementptr inbounds nuw %"struct.std::_Rb_tree_header", ptr %5, i32 0, i32 0
  %7 = getelementptr inbounds nuw %"struct.std::_Rb_tree_node_base", ptr %6, i32 0, i32 1
  %8 = load ptr, ptr %7, align 8
  ret ptr %8
}

; Function Attrs: mustprogress nounwind uwtable
define linkonce_odr hidden void @_ZNSt15__new_allocatorISt13_Rb_tree_nodeIN3ue212graph_detail17vertex_descriptorINS1_9ue2_graphINS1_9RoseGraphENS1_15RoseVertexPropsENS1_13RoseEdgePropsEEEEEEED2Ev(ptr noundef nonnull align 1 dereferenceable(1) %0) unnamed_addr #1 comdat align 2 {
  %2 = alloca ptr, align 8
  store ptr %0, ptr %2, align 8
  ret void
}

; Function Attrs: mustprogress nounwind uwtable
define linkonce_odr hidden noundef ptr @_ZNSt8_Rb_treeIN3ue212graph_detail17vertex_descriptorINS0_9ue2_graphINS0_9RoseGraphENS0_15RoseVertexPropsENS0_13RoseEdgePropsEEEEES8_St9_IdentityIS8_ESt4lessIS8_ESaIS8_EE8_M_beginEv(ptr noundef nonnull align 8 dereferenceable(48) %0) #1 comdat align 2 {
  %2 = alloca ptr, align 8
  store ptr %0, ptr %2, align 8
  %3 = load ptr, ptr %2, align 8
  %4 = call noundef ptr @_ZNKSt8_Rb_treeIN3ue212graph_detail17vertex_descriptorINS0_9ue2_graphINS0_9RoseGraphENS0_15RoseVertexPropsENS0_13RoseEdgePropsEEEEES8_St9_IdentityIS8_ESt4lessIS8_ESaIS8_EE9_M_mbeginEv(ptr noundef nonnull align 8 dereferenceable(48) %3) #24
  ret ptr %4
}

; Function Attrs: mustprogress nounwind uwtable
define linkonce_odr hidden void @_ZNSt8_Rb_treeIN3ue212graph_detail17vertex_descriptorINS0_9ue2_graphINS0_9RoseGraphENS0_15RoseVertexPropsENS0_13RoseEdgePropsEEEEES8_St9_IdentityIS8_ESt4lessIS8_ESaIS8_EED2Ev(ptr noundef nonnull align 8 dereferenceable(48) %0) unnamed_addr #1 comdat align 2 personality ptr @__gxx_personality_v0 {
  %2 = alloca ptr, align 8
  store ptr %0, ptr %2, align 8
  %3 = load ptr, ptr %2, align 8
  %4 = call noundef ptr @_ZNSt8_Rb_treeIN3ue212graph_detail17vertex_descriptorINS0_9ue2_graphINS0_9RoseGraphENS0_15RoseVertexPropsENS0_13RoseEdgePropsEEEEES8_St9_IdentityIS8_ESt4lessIS8_ESaIS8_EE8_M_beginEv(ptr noundef nonnull align 8 dereferenceable(48) %3) #24
  invoke void @_ZNSt8_Rb_treeIN3ue212graph_detail17vertex_descriptorINS0_9ue2_graphINS0_9RoseGraphENS0_15RoseVertexPropsENS0_13RoseEdgePropsEEEEES8_St9_IdentityIS8_ESt4lessIS8_ESaIS8_EE8_M_eraseEPSt13_Rb_tree_nodeIS8_E(ptr noundef nonnull align 8 dereferenceable(48) %3, ptr noundef %4)
          to label %5 unwind label %7

5:                                                ; preds = %1
  %6 = getelementptr inbounds nuw %"class.std::_Rb_tree.577", ptr %3, i32 0, i32 0
  call void @_ZNSt15__new_allocatorISt13_Rb_tree_nodeIN3ue212graph_detail17vertex_descriptorINS1_9ue2_graphINS1_9RoseGraphENS1_15RoseVertexPropsENS1_13RoseEdgePropsEEEEEEED2Ev(ptr noundef nonnull align 8 dereferenceable(48) %6) #24
  ret void

7:                                                ; preds = %1
  %8 = landingpad { ptr, i32 }
          catch ptr null
  %9 = extractvalue { ptr, i32 } %8, 0
  call void @__clang_call_terminate(ptr %9) #25
  unreachable
}

; Function Attrs: mustprogress nounwind uwtable
define linkonce_odr hidden void @_ZNSt3setIN3ue212graph_detail17vertex_descriptorINS0_9ue2_graphINS0_9RoseGraphENS0_15RoseVertexPropsENS0_13RoseEdgePropsEEEEESt4lessIS8_ESaIS8_EED2Ev(ptr noundef nonnull align 8 dereferenceable(48) %0) unnamed_addr #1 comdat align 2 {
  %2 = alloca ptr, align 8
  store ptr %0, ptr %2, align 8
  %3 = load ptr, ptr %2, align 8
  %4 = getelementptr inbounds nuw %"class.std::set.576", ptr %3, i32 0, i32 0
  call void @_ZNSt8_Rb_treeIN3ue212graph_detail17vertex_descriptorINS0_9ue2_graphINS0_9RoseGraphENS0_15RoseVertexPropsENS0_13RoseEdgePropsEEEEES8_St9_IdentityIS8_ESt4lessIS8_ESaIS8_EED2Ev(ptr noundef nonnull align 8 dereferenceable(48) %4) #24
  ret void
}

; Function Attrs: inlinehint mustprogress nounwind uwtable
define internal void @_ZN3ue212_GLOBAL__N_110infix_infoD2Ev(ptr noundef nonnull align 8 dereferenceable(96) %0) unnamed_addr #5 align 2 {
  %2 = alloca ptr, align 8
  store ptr %0, ptr %2, align 8
  %3 = load ptr, ptr %2, align 8
  %4 = getelementptr inbounds nuw %"struct.ue2::(anonymous namespace)::infix_info", ptr %3, i32 0, i32 1
  call void @_ZNSt3setIN3ue212graph_detail17vertex_descriptorINS0_9ue2_graphINS0_9RoseGraphENS0_15RoseVertexPropsENS0_13RoseEdgePropsEEEEESt4lessIS8_ESaIS8_EED2Ev(ptr noundef nonnull align 8 dereferenceable(48) %4) #24
  %5 = getelementptr inbounds nuw %"struct.ue2::(anonymous namespace)::infix_info", ptr %3, i32 0, i32 0
  call void @_ZNSt3setIN3ue212graph_detail17vertex_descriptorINS0_9ue2_graphINS0_9RoseGraphENS0_15RoseVertexPropsENS0_13RoseEdgePropsEEEEESt4lessIS8_ESaIS8_EED2Ev(ptr noundef nonnull align 8 dereferenceable(48) %5) #24
  ret void
}

; Function Attrs: inlinehint mustprogress nounwind uwtable
define internal void @_ZNSt4pairIKPN3ue28NGHolderENS0_12_GLOBAL__N_110infix_infoEED2Ev(ptr noundef nonnull align 8 dereferenceable(104) %0) unnamed_addr #5 align 2 {
  %2 = alloca ptr, align 8
  store ptr %0, ptr %2, align 8
  %3 = load ptr, ptr %2, align 8
  %4 = getelementptr inbounds nuw %"struct.std::pair.574", ptr %3, i32 0, i32 1
  call void @_ZN3ue212_GLOBAL__N_110infix_infoD2Ev(ptr noundef nonnull align 8 dereferenceable(96) %4) #24
  ret void
}

; Function Attrs: mustprogress nounwind uwtable
define internal noundef ptr @_ZN9__gnu_cxx16__aligned_membufISt4pairIKPN3ue28NGHolderENS2_12_GLOBAL__N_110infix_infoEEE7_M_addrEv(ptr noundef nonnull align 8 dereferenceable(104) %0) #1 align 2 {
  %2 = alloca ptr, align 8
  store ptr %0, ptr %2, align 8
  %3 = load ptr, ptr %2, align 8
  %4 = getelementptr inbounds nuw %"struct.__gnu_cxx::__aligned_membuf.592", ptr %3, i32 0, i32 0
  ret ptr %4
}

; Function Attrs: mustprogress nounwind uwtable
define internal void @_ZNSt15__new_allocatorISt13_Rb_tree_nodeISt4pairIKPN3ue28NGHolderENS2_12_GLOBAL__N_110infix_infoEEEE10deallocateEPS9_m(ptr noundef nonnull align 1 dereferenceable(1) %0, ptr noundef %1, i64 noundef %2) #1 align 2 {
  %4 = alloca ptr, align 8
  %5 = alloca ptr, align 8
  %6 = alloca i64, align 8
  store ptr %0, ptr %4, align 8
  store ptr %1, ptr %5, align 8
  store i64 %2, ptr %6, align 8
  %7 = load ptr, ptr %5, align 8
  call void @_ZdlPv(ptr noundef %7) #27
  ret void
}

; Function Attrs: mustprogress nounwind uwtable
define internal void @_ZNSt15__new_allocatorISt13_Rb_tree_nodeISt4pairIKPN3ue28NGHolderENS2_12_GLOBAL__N_110infix_infoEEEE7destroyIS8_EEvPT_(ptr noundef nonnull align 1 dereferenceable(1) %0, ptr noundef %1) #1 align 2 {
  %3 = alloca ptr, align 8
  %4 = alloca ptr, align 8
  store ptr %0, ptr %3, align 8
  store ptr %1, ptr %4, align 8
  %5 = load ptr, ptr %4, align 8
  call void @_ZNSt4pairIKPN3ue28NGHolderENS0_12_GLOBAL__N_110infix_infoEED2Ev(ptr noundef nonnull align 8 dereferenceable(104) %5) #24
  ret void
}

; Function Attrs: mustprogress nounwind uwtable
define internal noundef ptr @_ZN9__gnu_cxx16__aligned_membufISt4pairIKPN3ue28NGHolderENS2_12_GLOBAL__N_110infix_infoEEE6_M_ptrEv(ptr noundef nonnull align 8 dereferenceable(104) %0) #1 align 2 {
  %2 = alloca ptr, align 8
  store ptr %0, ptr %2, align 8
  %3 = load ptr, ptr %2, align 8
  %4 = call noundef ptr @_ZN9__gnu_cxx16__aligned_membufISt4pairIKPN3ue28NGHolderENS2_12_GLOBAL__N_110infix_infoEEE7_M_addrEv(ptr noundef nonnull align 8 dereferenceable(104) %3) #24
  ret ptr %4
}

; Function Attrs: mustprogress uwtable
define internal void @_ZNSt16allocator_traitsISaISt13_Rb_tree_nodeISt4pairIKPN3ue28NGHolderENS2_12_GLOBAL__N_110infix_infoEEEEE10deallocateERSA_PS9_m(ptr noundef nonnull align 1 dereferenceable(1) %0, ptr noundef %1, i64 noundef %2) #3 align 2 {
  %4 = alloca ptr, align 8
  %5 = alloca ptr, align 8
  %6 = alloca i64, align 8
  store ptr %0, ptr %4, align 8
  store ptr %1, ptr %5, align 8
  store i64 %2, ptr %6, align 8
  %7 = load ptr, ptr %4, align 8
  %8 = load ptr, ptr %5, align 8
  %9 = load i64, ptr %6, align 8
  call void @_ZNSt15__new_allocatorISt13_Rb_tree_nodeISt4pairIKPN3ue28NGHolderENS2_12_GLOBAL__N_110infix_infoEEEE10deallocateEPS9_m(ptr noundef nonnull align 1 dereferenceable(1) %7, ptr noundef %8, i64 noundef %9)
  ret void
}

; Function Attrs: mustprogress nounwind uwtable
define internal void @_ZNSt16allocator_traitsISaISt13_Rb_tree_nodeISt4pairIKPN3ue28NGHolderENS2_12_GLOBAL__N_110infix_infoEEEEE7destroyIS8_EEvRSA_PT_(ptr noundef nonnull align 1 dereferenceable(1) %0, ptr noundef %1) #1 align 2 {
  %3 = alloca ptr, align 8
  %4 = alloca ptr, align 8
  store ptr %0, ptr %3, align 8
  store ptr %1, ptr %4, align 8
  %5 = load ptr, ptr %3, align 8
  %6 = load ptr, ptr %4, align 8
  call void @_ZNSt15__new_allocatorISt13_Rb_tree_nodeISt4pairIKPN3ue28NGHolderENS2_12_GLOBAL__N_110infix_infoEEEE7destroyIS8_EEvPT_(ptr noundef nonnull align 1 dereferenceable(1) %5, ptr noundef %6) #24
  ret void
}

; Function Attrs: mustprogress nounwind uwtable
define internal noundef ptr @_ZNSt13_Rb_tree_nodeISt4pairIKPN3ue28NGHolderENS1_12_GLOBAL__N_110infix_infoEEE9_M_valptrEv(ptr noundef nonnull align 8 dereferenceable(136) %0) #1 align 2 {
  %2 = alloca ptr, align 8
  store ptr %0, ptr %2, align 8
  %3 = load ptr, ptr %2, align 8
  %4 = getelementptr inbounds nuw %"struct.std::_Rb_tree_node.591", ptr %3, i32 0, i32 1
  %5 = call noundef ptr @_ZN9__gnu_cxx16__aligned_membufISt4pairIKPN3ue28NGHolderENS2_12_GLOBAL__N_110infix_infoEEE6_M_ptrEv(ptr noundef nonnull align 8 dereferenceable(104) %4) #24
  ret ptr %5
}

; Function Attrs: mustprogress nounwind uwtable
define internal noundef nonnull align 1 dereferenceable(1) ptr @_ZNSt8_Rb_treeIPN3ue28NGHolderESt4pairIKS2_NS0_12_GLOBAL__N_110infix_infoEESt10_Select1stIS7_ESt4lessIS2_ESaIS7_EE21_M_get_Node_allocatorEv(ptr noundef nonnull align 8 dereferenceable(48) %0) #1 align 2 {
  %2 = alloca ptr, align 8
  store ptr %0, ptr %2, align 8
  %3 = load ptr, ptr %2, align 8
  %4 = getelementptr inbounds nuw %"class.std::_Rb_tree.568", ptr %3, i32 0, i32 0
  ret ptr %4
}

; Function Attrs: mustprogress nounwind uwtable
define internal void @_ZNSt8_Rb_treeIPN3ue28NGHolderESt4pairIKS2_NS0_12_GLOBAL__N_110infix_infoEESt10_Select1stIS7_ESt4lessIS2_ESaIS7_EE11_M_put_nodeEPSt13_Rb_tree_nodeIS7_E(ptr noundef nonnull align 8 dereferenceable(48) %0, ptr noundef %1) #1 align 2 personality ptr @__gxx_personality_v0 {
  %3 = alloca ptr, align 8
  %4 = alloca ptr, align 8
  store ptr %0, ptr %3, align 8
  store ptr %1, ptr %4, align 8
  %5 = load ptr, ptr %3, align 8
  %6 = call noundef nonnull align 1 dereferenceable(1) ptr @_ZNSt8_Rb_treeIPN3ue28NGHolderESt4pairIKS2_NS0_12_GLOBAL__N_110infix_infoEESt10_Select1stIS7_ESt4lessIS2_ESaIS7_EE21_M_get_Node_allocatorEv(ptr noundef nonnull align 8 dereferenceable(48) %5) #24
  %7 = load ptr, ptr %4, align 8
  invoke void @_ZNSt16allocator_traitsISaISt13_Rb_tree_nodeISt4pairIKPN3ue28NGHolderENS2_12_GLOBAL__N_110infix_infoEEEEE10deallocateERSA_PS9_m(ptr noundef nonnull align 1 dereferenceable(1) %6, ptr noundef %7, i64 noundef 1)
          to label %8 unwind label %9

8:                                                ; preds = %2
  ret void

9:                                                ; preds = %2
  %10 = landingpad { ptr, i32 }
          catch ptr null
  %11 = extractvalue { ptr, i32 } %10, 0
  call void @__clang_call_terminate(ptr %11) #25
  unreachable
}

; Function Attrs: mustprogress nounwind uwtable
define internal void @_ZNSt8_Rb_treeIPN3ue28NGHolderESt4pairIKS2_NS0_12_GLOBAL__N_110infix_infoEESt10_Select1stIS7_ESt4lessIS2_ESaIS7_EE15_M_destroy_nodeEPSt13_Rb_tree_nodeIS7_E(ptr noundef nonnull align 8 dereferenceable(48) %0, ptr noundef %1) #1 align 2 {
  %3 = alloca ptr, align 8
  %4 = alloca ptr, align 8
  store ptr %0, ptr %3, align 8
  store ptr %1, ptr %4, align 8
  %5 = load ptr, ptr %3, align 8
  %6 = call noundef nonnull align 1 dereferenceable(1) ptr @_ZNSt8_Rb_treeIPN3ue28NGHolderESt4pairIKS2_NS0_12_GLOBAL__N_110infix_infoEESt10_Select1stIS7_ESt4lessIS2_ESaIS7_EE21_M_get_Node_allocatorEv(ptr noundef nonnull align 8 dereferenceable(48) %5) #24
  %7 = load ptr, ptr %4, align 8
  %8 = call noundef ptr @_ZNSt13_Rb_tree_nodeISt4pairIKPN3ue28NGHolderENS1_12_GLOBAL__N_110infix_infoEEE9_M_valptrEv(ptr noundef nonnull align 8 dereferenceable(136) %7)
  call void @_ZNSt16allocator_traitsISaISt13_Rb_tree_nodeISt4pairIKPN3ue28NGHolderENS2_12_GLOBAL__N_110infix_infoEEEEE7destroyIS8_EEvRSA_PT_(ptr noundef nonnull align 1 dereferenceable(1) %6, ptr noundef %8) #24
  ret void
}

; Function Attrs: mustprogress nounwind uwtable
define internal void @_ZNSt8_Rb_treeIPN3ue28NGHolderESt4pairIKS2_NS0_12_GLOBAL__N_110infix_infoEESt10_Select1stIS7_ESt4lessIS2_ESaIS7_EE12_M_drop_nodeEPSt13_Rb_tree_nodeIS7_E(ptr noundef nonnull align 8 dereferenceable(48) %0, ptr noundef %1) #1 align 2 {
  %3 = alloca ptr, align 8
  %4 = alloca ptr, align 8
  store ptr %0, ptr %3, align 8
  store ptr %1, ptr %4, align 8
  %5 = load ptr, ptr %3, align 8
  %6 = load ptr, ptr %4, align 8
  call void @_ZNSt8_Rb_treeIPN3ue28NGHolderESt4pairIKS2_NS0_12_GLOBAL__N_110infix_infoEESt10_Select1stIS7_ESt4lessIS2_ESaIS7_EE15_M_destroy_nodeEPSt13_Rb_tree_nodeIS7_E(ptr noundef nonnull align 8 dereferenceable(48) %5, ptr noundef %6) #24
  %7 = load ptr, ptr %4, align 8
  call void @_ZNSt8_Rb_treeIPN3ue28NGHolderESt4pairIKS2_NS0_12_GLOBAL__N_110infix_infoEESt10_Select1stIS7_ESt4lessIS2_ESaIS7_EE11_M_put_nodeEPSt13_Rb_tree_nodeIS7_E(ptr noundef nonnull align 8 dereferenceable(48) %5, ptr noundef %7) #24
  ret void
}

; Function Attrs: mustprogress nounwind uwtable
define internal noundef ptr @_ZNSt8_Rb_treeIPN3ue28NGHolderESt4pairIKS2_NS0_12_GLOBAL__N_110infix_infoEESt10_Select1stIS7_ESt4lessIS2_ESaIS7_EE7_S_leftEPSt18_Rb_tree_node_base(ptr noundef %0) #1 align 2 {
  %2 = alloca ptr, align 8
  store ptr %0, ptr %2, align 8
  %3 = load ptr, ptr %2, align 8
  %4 = getelementptr inbounds nuw %"struct.std::_Rb_tree_node_base", ptr %3, i32 0, i32 2
  %5 = load ptr, ptr %4, align 8
  ret ptr %5
}

; Function Attrs: mustprogress nounwind uwtable
define internal noundef ptr @_ZNSt8_Rb_treeIPN3ue28NGHolderESt4pairIKS2_NS0_12_GLOBAL__N_110infix_infoEESt10_Select1stIS7_ESt4lessIS2_ESaIS7_EE8_S_rightEPSt18_Rb_tree_node_base(ptr noundef %0) #1 align 2 {
  %2 = alloca ptr, align 8
  store ptr %0, ptr %2, align 8
  %3 = load ptr, ptr %2, align 8
  %4 = getelementptr inbounds nuw %"struct.std::_Rb_tree_node_base", ptr %3, i32 0, i32 3
  %5 = load ptr, ptr %4, align 8
  ret ptr %5
}

; Function Attrs: mustprogress uwtable
define internal void @_ZNSt8_Rb_treeIPN3ue28NGHolderESt4pairIKS2_NS0_12_GLOBAL__N_110infix_infoEESt10_Select1stIS7_ESt4lessIS2_ESaIS7_EE8_M_eraseEPSt13_Rb_tree_nodeIS7_E(ptr noundef nonnull align 8 dereferenceable(48) %0, ptr noundef %1) #3 align 2 {
  %3 = alloca ptr, align 8
  %4 = alloca ptr, align 8
  %5 = alloca ptr, align 8
  store ptr %0, ptr %3, align 8
  store ptr %1, ptr %4, align 8
  %6 = load ptr, ptr %3, align 8
  br label %7

7:                                                ; preds = %10, %2
  %8 = load ptr, ptr %4, align 8
  %9 = icmp ne ptr %8, null
  br i1 %9, label %10, label %17

10:                                               ; preds = %7
  %11 = load ptr, ptr %4, align 8
  %12 = call noundef ptr @_ZNSt8_Rb_treeIPN3ue28NGHolderESt4pairIKS2_NS0_12_GLOBAL__N_110infix_infoEESt10_Select1stIS7_ESt4lessIS2_ESaIS7_EE8_S_rightEPSt18_Rb_tree_node_base(ptr noundef %11) #24
  call void @_ZNSt8_Rb_treeIPN3ue28NGHolderESt4pairIKS2_NS0_12_GLOBAL__N_110infix_infoEESt10_Select1stIS7_ESt4lessIS2_ESaIS7_EE8_M_eraseEPSt13_Rb_tree_nodeIS7_E(ptr noundef nonnull align 8 dereferenceable(48) %6, ptr noundef %12)
  call void @llvm.lifetime.start.p0(i64 8, ptr %5) #24
  %13 = load ptr, ptr %4, align 8
  %14 = call noundef ptr @_ZNSt8_Rb_treeIPN3ue28NGHolderESt4pairIKS2_NS0_12_GLOBAL__N_110infix_infoEESt10_Select1stIS7_ESt4lessIS2_ESaIS7_EE7_S_leftEPSt18_Rb_tree_node_base(ptr noundef %13) #24
  store ptr %14, ptr %5, align 8
  %15 = load ptr, ptr %4, align 8
  call void @_ZNSt8_Rb_treeIPN3ue28NGHolderESt4pairIKS2_NS0_12_GLOBAL__N_110infix_infoEESt10_Select1stIS7_ESt4lessIS2_ESaIS7_EE12_M_drop_nodeEPSt13_Rb_tree_nodeIS7_E(ptr noundef nonnull align 8 dereferenceable(48) %6, ptr noundef %15) #24
  %16 = load ptr, ptr %5, align 8
  store ptr %16, ptr %4, align 8
  call void @llvm.lifetime.end.p0(i64 8, ptr %5) #24
  br label %7, !llvm.loop !74

17:                                               ; preds = %7
  ret void
}