; Function Attrs: mustprogress nounwind uwtable
define internal fastcc void @_ZNSt8_Rb_treeIPN3ue28NGHolderESt4pairIKS2_NS0_12_GLOBAL__N_110infix_infoEESt10_Select1stIS7_ESt4lessIS2_ESaIS7_EE8_M_eraseEPSt13_Rb_tree_nodeIS7_E(ptr noundef %0) unnamed_addr #4 align 2 personality ptr @__gxx_personality_v0 {
  %.not1 = icmp eq ptr %0, null
  br i1 %.not1, label %._crit_edge, label %.lr.ph

.lr.ph:                                           ; preds = %1, %_ZNSt8_Rb_treeIPN3ue28NGHolderESt4pairIKS2_NS0_12_GLOBAL__N_110infix_infoEESt10_Select1stIS7_ESt4lessIS2_ESaIS7_EE12_M_drop_nodeEPSt13_Rb_tree_nodeIS7_E.exit
  %.02 = phi ptr [ %.0.val, %_ZNSt8_Rb_treeIPN3ue28NGHolderESt4pairIKS2_NS0_12_GLOBAL__N_110infix_infoEESt10_Select1stIS7_ESt4lessIS2_ESaIS7_EE12_M_drop_nodeEPSt13_Rb_tree_nodeIS7_E.exit ], [ %0, %1 ]
  %2 = getelementptr i8, ptr %.02, i64 24
  %.0.val6 = load ptr, ptr %2, align 8
  tail call fastcc void @_ZNSt8_Rb_treeIPN3ue28NGHolderESt4pairIKS2_NS0_12_GLOBAL__N_110infix_infoEESt10_Select1stIS7_ESt4lessIS2_ESaIS7_EE8_M_eraseEPSt13_Rb_tree_nodeIS7_E(ptr noundef %.0.val6)
  %3 = getelementptr i8, ptr %.02, i64 16
  %.0.val = load ptr, ptr %3, align 8
  %4 = getelementptr inbounds nuw i8, ptr %.02, i64 88
  %5 = getelementptr inbounds nuw i8, ptr %.02, i64 104
  %6 = load ptr, ptr %5, align 8
  invoke void @_ZNSt8_Rb_treeIN3ue212graph_detail17vertex_descriptorINS0_9ue2_graphINS0_9RoseGraphENS0_15RoseVertexPropsENS0_13RoseEdgePropsEEEEES8_St9_IdentityIS8_ESt4lessIS8_ESaIS8_EE8_M_eraseEPSt13_Rb_tree_nodeIS8_E(ptr noundef nonnull align 8 dereferenceable(48) %4, ptr noundef %6)
          to label %_ZNSt3setIN3ue212graph_detail17vertex_descriptorINS0_9ue2_graphINS0_9RoseGraphENS0_15RoseVertexPropsENS0_13RoseEdgePropsEEEEESt4lessIS8_ESaIS8_EED2Ev.exit.i.i.i.i.i.i unwind label %7

7:                                                ; preds = %.lr.ph
  %8 = landingpad { ptr, i32 }
          catch ptr null
  %9 = extractvalue { ptr, i32 } %8, 0
  tail call void @__clang_call_terminate(ptr %9) #28
  unreachable

_ZNSt3setIN3ue212graph_detail17vertex_descriptorINS0_9ue2_graphINS0_9RoseGraphENS0_15RoseVertexPropsENS0_13RoseEdgePropsEEEEESt4lessIS8_ESaIS8_EED2Ev.exit.i.i.i.i.i.i: ; preds = %.lr.ph
  %10 = getelementptr inbounds nuw i8, ptr %.02, i64 40
  %11 = getelementptr inbounds nuw i8, ptr %.02, i64 56
  %12 = load ptr, ptr %11, align 8
  invoke void @_ZNSt8_Rb_treeIN3ue212graph_detail17vertex_descriptorINS0_9ue2_graphINS0_9RoseGraphENS0_15RoseVertexPropsENS0_13RoseEdgePropsEEEEES8_St9_IdentityIS8_ESt4lessIS8_ESaIS8_EE8_M_eraseEPSt13_Rb_tree_nodeIS8_E(ptr noundef nonnull align 8 dereferenceable(96) %10, ptr noundef %12)
          to label %_ZNSt8_Rb_treeIPN3ue28NGHolderESt4pairIKS2_NS0_12_GLOBAL__N_110infix_infoEESt10_Select1stIS7_ESt4lessIS2_ESaIS7_EE12_M_drop_nodeEPSt13_Rb_tree_nodeIS7_E.exit unwind label %13

13:                                               ; preds = %_ZNSt3setIN3ue212graph_detail17vertex_descriptorINS0_9ue2_graphINS0_9RoseGraphENS0_15RoseVertexPropsENS0_13RoseEdgePropsEEEEESt4lessIS8_ESaIS8_EED2Ev.exit.i.i.i.i.i.i
  %14 = landingpad { ptr, i32 }
          catch ptr null
  %15 = extractvalue { ptr, i32 } %14, 0
  tail call void @__clang_call_terminate(ptr %15) #28
  unreachable

_ZNSt8_Rb_treeIPN3ue28NGHolderESt4pairIKS2_NS0_12_GLOBAL__N_110infix_infoEESt10_Select1stIS7_ESt4lessIS2_ESaIS7_EE12_M_drop_nodeEPSt13_Rb_tree_nodeIS7_E.exit: ; preds = %_ZNSt3setIN3ue212graph_detail17vertex_descriptorINS0_9ue2_graphINS0_9RoseGraphENS0_15RoseVertexPropsENS0_13RoseEdgePropsEEEEESt4lessIS8_ESaIS8_EED2Ev.exit.i.i.i.i.i.i
  tail call void @_ZdlPv(ptr noundef nonnull %.02) #25
  %.not = icmp eq ptr %.0.val, null
  br i1 %.not, label %._crit_edge, label %.lr.ph, !llvm.loop !1397

._crit_edge:                                      ; preds = %_ZNSt8_Rb_treeIPN3ue28NGHolderESt4pairIKS2_NS0_12_GLOBAL__N_110infix_infoEESt10_Select1stIS7_ESt4lessIS2_ESaIS7_EE12_M_drop_nodeEPSt13_Rb_tree_nodeIS7_E.exit, %1
  ret void
}